target datalayout = "e-m:e-p270:32:32-p271:32:32-p272:64:64-i64:64-i128:128-f80:128-n8:16:32:64-S128"
target triple = "x86_64-pc-linux-gnu"

%union.anon.1 = type { i64 }

@.str.1 = private unnamed_addr constant [10 x i8] c"plancat.c\00", align 1
@.str.10 = private unnamed_addr constant [29 x i8] c"invalid join selectivity: %f\00", align 1
@__func__.join_selectivity = private unnamed_addr constant [17 x i8] c"join_selectivity\00", align 1

; Function Attrs: inlinehint nounwind uwtable
define internal i64 @DatumGetInt64(i64 noundef %0) #4 {
  %2 = alloca i64, align 8
  store i64 %0, ptr %2, align 8
  %3 = load i64, ptr %2, align 8
  ret i64 %3
}

; Function Attrs: inlinehint nounwind uwtable
define internal double @DatumGetFloat8(i64 noundef %0) #4 {
  %2 = alloca i64, align 8
  %3 = alloca %union.anon.1, align 8
  store i64 %0, ptr %2, align 8
  call void @llvm.lifetime.start.p0(i64 8, ptr %3) #10
  %4 = load i64, ptr %2, align 8
  %5 = call i64 @DatumGetInt64(i64 noundef %4)
  store i64 %5, ptr %3, align 8
  %6 = load double, ptr %3, align 8
  call void @llvm.lifetime.end.p0(i64 8, ptr %3) #10
  ret double %6
}

; Function Attrs: inlinehint nounwind uwtable
define internal i64 @Int16GetDatum(i16 noundef signext %0) #4 {
  %2 = alloca i16, align 2
  store i16 %0, ptr %2, align 2
  %3 = load i16, ptr %2, align 2
  %4 = sext i16 %3 to i64
  ret i64 %4
}

; Function Attrs: inlinehint nounwind uwtable
define internal i64 @ObjectIdGetDatum(i32 noundef %0) #4 {
  %2 = alloca i32, align 4
  store i32 %0, ptr %2, align 4
  %3 = load i32, ptr %2, align 4
  %4 = zext i32 %3 to i64
  ret i64 %4
}

; Function Attrs: inlinehint nounwind uwtable
define internal i64 @PointerGetDatum(ptr noundef %0) #4 {
  %2 = alloca ptr, align 8
  store ptr %0, ptr %2, align 8
  %3 = load ptr, ptr %2, align 8
  %4 = ptrtoint ptr %3 to i64
  ret i64 %4
}

; Function Attrs: nounwind uwtable
define dso_local double @join_selectivity(ptr noundef %0, i32 noundef %1, ptr noundef %2, i32 noundef %3, i32 noundef %4, ptr noundef %5) #0 {
  %7 = alloca double, align 8
  %8 = alloca ptr, align 8
  %9 = alloca i32, align 4
  %10 = alloca ptr, align 8
  %11 = alloca i32, align 4
  %12 = alloca i32, align 4
  %13 = alloca ptr, align 8
  %14 = alloca i32, align 4
  %15 = alloca double, align 8
  %16 = alloca i32, align 4
  store ptr %0, ptr %8, align 8
  store i32 %1, ptr %9, align 4
  store ptr %2, ptr %10, align 8
  store i32 %3, ptr %11, align 4
  store i32 %4, ptr %12, align 4
  store ptr %5, ptr %13, align 8
  call void @llvm.lifetime.start.p0(i64 4, ptr %14) #10
  %17 = load i32, ptr %9, align 4
  %18 = call i32 @get_oprjoin(i32 noundef %17)
  store i32 %18, ptr %14, align 4
  call void @llvm.lifetime.start.p0(i64 8, ptr %15) #10
  %19 = load i32, ptr %14, align 4
  %20 = icmp ne i32 %19, 0
  br i1 %20, label %22, label %21

21:                                               ; preds = %6
  store double 5.000000e-01, ptr %7, align 8
  store i32 1, ptr %16, align 4
  br label %57

22:                                               ; preds = %6
  %23 = load i32, ptr %14, align 4
  %24 = load i32, ptr %11, align 4
  %25 = load ptr, ptr %8, align 8
  %26 = call i64 @PointerGetDatum(ptr noundef %25)
  %27 = load i32, ptr %9, align 4
  %28 = call i64 @ObjectIdGetDatum(i32 noundef %27)
  %29 = load ptr, ptr %10, align 8
  %30 = call i64 @PointerGetDatum(ptr noundef %29)
  %31 = load i32, ptr %12, align 4
  %32 = trunc i32 %31 to i16
  %33 = call i64 @Int16GetDatum(i16 noundef signext %32)
  %34 = load ptr, ptr %13, align 8
  %35 = call i64 @PointerGetDatum(ptr noundef %34)
  %36 = call i64 @OidFunctionCall5Coll(i32 noundef %23, i32 noundef %24, i64 noundef %26, i64 noundef %28, i64 noundef %30, i64 noundef %33, i64 noundef %35)
  %37 = call double @DatumGetFloat8(i64 noundef %36)
  store double %37, ptr %15, align 8
  %38 = load double, ptr %15, align 8
  %39 = fcmp olt double %38, 0.000000e+00
  br i1 %39, label %43, label %40

40:                                               ; preds = %22
  %41 = load double, ptr %15, align 8
  %42 = fcmp ogt double %41, 1.000000e+00
  br i1 %42, label %43, label %55

43:                                               ; preds = %40, %22
  br label %44

44:                                               ; preds = %43
  br i1 true, label %45, label %47

45:                                               ; preds = %44
  %46 = call zeroext i1 @errstart_cold(i32 noundef 21, ptr noundef null) #11
  br i1 %46, label %49, label %52

47:                                               ; preds = %44
  %48 = call zeroext i1 @errstart(i32 noundef 21, ptr noundef null)
  br i1 %48, label %49, label %52

49:                                               ; preds = %47, %45
  %50 = load double, ptr %15, align 8
  %51 = call i32 (ptr, ...) @errmsg_internal(ptr noundef @.str.10, double noundef %50)
  call void @errfinish(ptr noundef @.str.1, i32 noundef 2032, ptr noundef @__func__.join_selectivity)
  br label %52

52:                                               ; preds = %49, %47, %45
  unreachable

53:                                               ; No predecessors!
  br label %54

54:                                               ; preds = %53
  br label %55

55:                                               ; preds = %54, %40
  %56 = load double, ptr %15, align 8
  store double %56, ptr %7, align 8
  store i32 1, ptr %16, align 4
  br label %57

57:                                               ; preds = %55, %21
  call void @llvm.lifetime.end.p0(i64 8, ptr %15) #10
  call void @llvm.lifetime.end.p0(i64 4, ptr %14) #10
  %58 = load double, ptr %7, align 8
  ret double %58
}