; Function Attrs: nounwind uwtable
define dso_local double @join_selectivity(ptr noundef %0, i32 noundef %1, ptr noundef %2, i32 noundef %3, i32 noundef %4, ptr noundef %5) local_unnamed_addr #0 {
  %7 = tail call i32 @get_oprjoin(i32 noundef %1) #10
  %.not = icmp eq i32 %7, 0
  br i1 %.not, label %22, label %8

8:                                                ; preds = %6
  %9 = ptrtoint ptr %0 to i64
  %10 = zext i32 %1 to i64
  %11 = ptrtoint ptr %2 to i64
  %12 = zext i32 %4 to i64
  %sext = shl i64 %12, 48
  %13 = ashr exact i64 %sext, 48
  %14 = ptrtoint ptr %5 to i64
  %15 = tail call i64 @OidFunctionCall5Coll(i32 noundef %7, i32 noundef %3, i64 noundef %9, i64 noundef %10, i64 noundef %11, i64 noundef %13, i64 noundef %14) #10
  %16 = bitcast i64 %15 to double
  %17 = fcmp olt double %16, 0.000000e+00
  %18 = fcmp ogt double %16, 1.000000e+00
  %or.cond = or i1 %17, %18
  br i1 %or.cond, label %19, label %22

19:                                               ; preds = %8
  %20 = tail call zeroext i1 @errstart_cold(i32 noundef 21, ptr noundef null) #11
  tail call void @llvm.assume(i1 %20)
  %21 = tail call i32 (ptr, ...) @errmsg_internal(ptr noundef nonnull @.str.10, double noundef %16) #10
  tail call void @errfinish(ptr noundef nonnull @.str.1, i32 noundef 2032, ptr noundef nonnull @__func__.join_selectivity) #10
  unreachable

22:                                               ; preds = %8, %6
  %.0 = phi double [ 5.000000e-01, %6 ], [ %16, %8 ]
  ret double %.0
}